target datalayout = "e-m:e-p270:32:32-p271:32:32-p272:64:64-i64:64-i128:128-f80:128-n8:16:32:64-S128"
target triple = "x86_64-pc-linux-gnu"

%struct.pm_lex_mode = type { i32, %union.anon, ptr }
%union.anon = type { %struct.anon.3 }
%struct.anon.3 = type { %struct.pm_heredoc_lex_mode_t, ptr, ptr, i8 }
%struct.pm_heredoc_lex_mode_t = type { ptr, i64, i32, i32 }
%struct.pm_parser = type { i32, i32, i32, i32, i32, i32, i32, %struct.anon, ptr, ptr, %struct.pm_token_t, %struct.pm_token_t, ptr, ptr, %struct.pm_list_t, %struct.pm_list_t, %struct.pm_location_t, %struct.pm_list_t, %struct.pm_list_t, ptr, ptr, ptr, ptr, ptr, ptr, ptr, %struct.pm_string_t, %struct.pm_constant_pool_t, %struct.pm_newline_list_t, i16, %struct.pm_string_t, i32, ptr, ptr, i32, i8, i8, i8, i8, i8, i8, i8, i8, i8, i8, i8, i8, i8 }
%struct.anon = type { ptr, [4 x %struct.pm_lex_mode], i64 }
%struct.pm_token_t = type { i32, ptr, ptr }
%struct.pm_location_t = type { ptr, ptr }
%struct.pm_list_t = type { i64, ptr, ptr }
%struct.pm_constant_pool_t = type { ptr, ptr, i32, i32 }
%struct.pm_newline_list_t = type { ptr, i64, i64, ptr }
%struct.pm_string_t = type { ptr, i64, i32 }
%struct.pm_options = type { ptr, ptr, %struct.pm_string_t, i32, %struct.pm_string_t, i64, ptr, i32, i8, i8, i8, i8, i8, i8 }

@.str.170 = private unnamed_addr constant [6 x i8] c"PRISM\00", align 1

; Function Attrs: inlinehint nounwind sspstrong uwtable
define internal void @pm_serialize_header(ptr noundef %0) #7 {
  %2 = alloca ptr, align 8
  store ptr %0, ptr %2, align 8, !tbaa !57
  %3 = load ptr, ptr %2, align 8, !tbaa !57
  call void @pm_buffer_append_string(ptr noundef %3, ptr noundef @.str.170, i64 noundef 5)
  %4 = load ptr, ptr %2, align 8, !tbaa !57
  call void @pm_buffer_append_byte(ptr noundef %4, i8 noundef zeroext 1)
  %5 = load ptr, ptr %2, align 8, !tbaa !57
  call void @pm_buffer_append_byte(ptr noundef %5, i8 noundef zeroext 3)
  %6 = load ptr, ptr %2, align 8, !tbaa !57
  call void @pm_buffer_append_byte(ptr noundef %6, i8 noundef zeroext 0)
  %7 = load ptr, ptr %2, align 8, !tbaa !57
  call void @pm_buffer_append_byte(ptr noundef %7, i8 noundef zeroext 0)
  ret void
}

; Function Attrs: nounwind sspstrong uwtable
define hidden void @pm_serialize_parse(ptr noundef %0, ptr noundef %1, i64 noundef %2, ptr noundef %3) #0 {
  %5 = alloca ptr, align 8
  %6 = alloca ptr, align 8
  %7 = alloca i64, align 8
  %8 = alloca ptr, align 8
  %9 = alloca %struct.pm_options, align 8
  %10 = alloca %struct.pm_parser, align 8
  %11 = alloca ptr, align 8
  store ptr %0, ptr %5, align 8, !tbaa !57
  store ptr %1, ptr %6, align 8, !tbaa !12
  store i64 %2, ptr %7, align 8, !tbaa !14
  store ptr %3, ptr %8, align 8, !tbaa !12
  call void @llvm.lifetime.start.p0(i64 104, ptr %9) #15
  call void @llvm.memset.p0.i64(ptr align 8 %9, i8 0, i64 104, i1 false)
  %12 = load ptr, ptr %8, align 8, !tbaa !12
  call void @pm_options_read(ptr noundef %9, ptr noundef %12)
  call void @llvm.lifetime.start.p0(i64 712, ptr %10) #15
  %13 = load ptr, ptr %6, align 8, !tbaa !12
  %14 = load i64, ptr %7, align 8, !tbaa !14
  call void @pm_parser_init(ptr noundef %10, ptr noundef %13, i64 noundef %14, ptr noundef %9)
  call void @llvm.lifetime.start.p0(i64 8, ptr %11) #15
  %15 = call ptr @pm_parse(ptr noundef %10)
  store ptr %15, ptr %11, align 8, !tbaa !128
  %16 = load ptr, ptr %5, align 8, !tbaa !57
  call void @pm_serialize_header(ptr noundef %16)
  %17 = load ptr, ptr %11, align 8, !tbaa !128
  %18 = load ptr, ptr %5, align 8, !tbaa !57
  call void @pm_serialize_content(ptr noundef %10, ptr noundef %17, ptr noundef %18)
  %19 = load ptr, ptr %5, align 8, !tbaa !57
  call void @pm_buffer_append_byte(ptr noundef %19, i8 noundef zeroext 0)
  %20 = load ptr, ptr %11, align 8, !tbaa !128
  call void @pm_node_destroy(ptr noundef %10, ptr noundef %20)
  call void @pm_parser_free(ptr noundef %10)
  call void @pm_options_free(ptr noundef %9)
  call void @llvm.lifetime.end.p0(i64 8, ptr %11) #15
  call void @llvm.lifetime.end.p0(i64 712, ptr %10) #15
  call void @llvm.lifetime.end.p0(i64 104, ptr %9) #15
  ret void
}