; Function Attrs: nounwind sspstrong uwtable
define hidden void @pm_serialize_parse(ptr noundef %0, ptr noundef %1, i64 noundef %2, ptr noundef %3) local_unnamed_addr #1 {
  %5 = alloca %struct.pm_options, align 8
  %6 = alloca %struct.pm_parser, align 8
  call void @llvm.lifetime.start.p0(i64 104, ptr nonnull %5) #31
  call void @llvm.memset.p0.i64(ptr noundef nonnull align 8 dereferenceable(104) %5, i8 0, i64 104, i1 false)
  call void @pm_options_read(ptr noundef nonnull %5, ptr noundef %3) #31
  call void @llvm.lifetime.start.p0(i64 712, ptr nonnull %6) #31
  call void @pm_parser_init(ptr noundef nonnull %6, ptr noundef %1, i64 noundef %2, ptr noundef nonnull %5)
  %7 = call ptr @pm_parse(ptr noundef nonnull %6)
  call void @pm_buffer_append_string(ptr noundef %0, ptr noundef nonnull @.str.170, i64 noundef 5) #31
  call void @pm_buffer_append_byte(ptr noundef %0, i8 noundef zeroext 1) #31
  call void @pm_buffer_append_byte(ptr noundef %0, i8 noundef zeroext 3) #31
  call void @pm_buffer_append_byte(ptr noundef %0, i8 noundef zeroext 0) #31
  call void @pm_buffer_append_byte(ptr noundef %0, i8 noundef zeroext 0) #31
  call void @pm_serialize_content(ptr noundef nonnull %6, ptr noundef nonnull %7, ptr noundef %0) #31
  call void @pm_buffer_append_byte(ptr noundef %0, i8 noundef zeroext 0) #31
  call void @pm_node_destroy(ptr noundef nonnull %6, ptr noundef nonnull %7) #31
  call void @pm_parser_free(ptr noundef nonnull %6)
  call void @pm_options_free(ptr noundef nonnull %5) #31
  call void @llvm.lifetime.end.p0(i64 712, ptr nonnull %6) #31
  call void @llvm.lifetime.end.p0(i64 104, ptr nonnull %5) #31
  ret void
}